target datalayout = "e-m:e-p270:32:32-p271:32:32-p272:64:64-i64:64-i128:128-f80:128-n8:16:32:64-S128"
target triple = "x86_64-pc-linux-gnu"

%struct.sigaction = type { %union.anon.806, %struct.__sigset_t, i32, ptr }
%union.anon.806 = type { ptr }
%struct.__sigset_t = type { [16 x i64] }

; Function Attrs: nounwind uwtable
define dso_local ptr @PyOS_getsig(i32 noundef %0) #1 {
  %2 = alloca ptr, align 8
  %3 = alloca i32, align 4
  %4 = alloca %struct.sigaction, align 8
  %5 = alloca i32, align 4
  store i32 %0, ptr %3, align 4, !tbaa !4
  call void @llvm.lifetime.start.p0(i64 152, ptr %4) #14
  %6 = load i32, ptr %3, align 4, !tbaa !4
  %7 = call i32 @sigaction(i32 noundef %6, ptr noundef null, ptr noundef %4) #14
  %8 = icmp eq i32 %7, -1
  br i1 %8, label %9, label %10

9:                                                ; preds = %1
  store ptr inttoptr (i64 -1 to ptr), ptr %2, align 8
  store i32 1, ptr %5, align 4
  br label %13

10:                                               ; preds = %1
  %11 = getelementptr inbounds nuw %struct.sigaction, ptr %4, i32 0, i32 0
  %12 = load ptr, ptr %11, align 8, !tbaa !181
  store ptr %12, ptr %2, align 8
  store i32 1, ptr %5, align 4
  br label %13

13:                                               ; preds = %10, %9
  call void @llvm.lifetime.end.p0(i64 152, ptr %4) #14
  %14 = load ptr, ptr %2, align 8
  ret ptr %14
}