; Function Attrs: nounwind uwtable
define dso_local ptr @PyOS_getsig(i32 noundef %0) local_unnamed_addr #1 {
  %2 = alloca %struct.sigaction, align 8
  call void @llvm.lifetime.start.p0(i64 152, ptr nonnull %2) #23
  %3 = call i32 @sigaction(i32 noundef %0, ptr noundef null, ptr noundef nonnull %2) #23
  %4 = icmp eq i32 %3, -1
  %5 = load ptr, ptr %2, align 8
  %.0 = select i1 %4, ptr inttoptr (i64 -1 to ptr), ptr %5
  call void @llvm.lifetime.end.p0(i64 152, ptr nonnull %2) #23
  ret ptr %.0
}